target datalayout = "e-m:e-p270:32:32-p271:32:32-p272:64:64-i64:64-i128:128-f80:128-n8:16:32:64-S128"
target triple = "x86_64-pc-linux-gnu"

%struct.evp_test_st = type { %struct.stanza_st, ptr, i32, ptr, ptr, ptr, ptr, ptr, ptr, i32 }
%struct.stanza_st = type { ptr, ptr, i32, i32, i32, i32, i32, i32, [150 x %struct.pair_st], ptr, [32768 x i8] }
%struct.pair_st = type { ptr, ptr }
%struct.ossl_param_st = type { ptr, i32, ptr, i64, i64 }
%struct.kdf_data_st = type { ptr, ptr, i64, [20 x %struct.ossl_param_st], ptr, ptr }

@propquery = internal global ptr null, align 8
@libctx = internal global ptr null, align 8
@.str.29 = private unnamed_addr constant [27 x i8] c"../openssl/test/evp_test.c\00", align 1
@.str.134 = private unnamed_addr constant [27 x i8] c"skipping, '%s' is disabled\00", align 1
@.str.288 = private unnamed_addr constant [39 x i8] c"kdata = OPENSSL_zalloc(sizeof(*kdata))\00", align 1

; Function Attrs: nounwind uwtable
define internal i32 @is_kdf_disabled(ptr noundef %0) #0 {
  %2 = alloca ptr, align 8
  store ptr %0, ptr %2, align 8, !tbaa !4
  ret i32 0
}

; Function Attrs: nounwind uwtable
define internal i32 @kdf_test_init(ptr noundef %0, ptr noundef %1) #0 {
  %3 = alloca i32, align 4
  %4 = alloca ptr, align 8
  %5 = alloca ptr, align 8
  %6 = alloca ptr, align 8
  %7 = alloca ptr, align 8
  %8 = alloca i32, align 4
  %9 = alloca %struct.ossl_param_st, align 8
  store ptr %0, ptr %4, align 8, !tbaa !15
  store ptr %1, ptr %5, align 8, !tbaa !4
  call void @llvm.lifetime.start.p0(i64 8, ptr %6) #10
  call void @llvm.lifetime.start.p0(i64 8, ptr %7) #10
  %10 = load ptr, ptr %5, align 8, !tbaa !4
  %11 = call i32 @is_kdf_disabled(ptr noundef %10)
  %12 = icmp ne i32 %11, 0
  br i1 %12, label %13, label %17

13:                                               ; preds = %2
  %14 = load ptr, ptr %5, align 8, !tbaa !4
  call void (ptr, i32, ptr, ...) @test_info(ptr noundef @.str.29, i32 noundef 3714, ptr noundef @.str.134, ptr noundef %14)
  %15 = load ptr, ptr %4, align 8, !tbaa !15
  %16 = getelementptr inbounds nuw %struct.evp_test_st, ptr %15, i32 0, i32 2
  store i32 1, ptr %16, align 8, !tbaa !24
  store i32 1, ptr %3, align 4
  store i32 1, ptr %8, align 4
  br label %58

17:                                               ; preds = %2
  %18 = call noalias ptr @CRYPTO_zalloc(i64 noundef 840, ptr noundef @.str.29, i32 noundef 3719)
  store ptr %18, ptr %6, align 8, !tbaa !242
  %19 = call i32 @test_ptr(ptr noundef @.str.29, i32 noundef 3719, ptr noundef @.str.288, ptr noundef %18)
  %20 = icmp ne i32 %19, 0
  br i1 %20, label %22, label %21

21:                                               ; preds = %17
  store i32 0, ptr %3, align 4
  store i32 1, ptr %8, align 4
  br label %58

22:                                               ; preds = %17
  %23 = load ptr, ptr %6, align 8, !tbaa !242
  %24 = getelementptr inbounds nuw %struct.kdf_data_st, ptr %23, i32 0, i32 3
  %25 = getelementptr inbounds [20 x %struct.ossl_param_st], ptr %24, i64 0, i64 0
  %26 = load ptr, ptr %6, align 8, !tbaa !242
  %27 = getelementptr inbounds nuw %struct.kdf_data_st, ptr %26, i32 0, i32 4
  store ptr %25, ptr %27, align 8, !tbaa !244
  %28 = load ptr, ptr %6, align 8, !tbaa !242
  %29 = getelementptr inbounds nuw %struct.kdf_data_st, ptr %28, i32 0, i32 4
  %30 = load ptr, ptr %29, align 8, !tbaa !244
  call void @llvm.lifetime.start.p0(i64 40, ptr %9) #10
  call void @OSSL_PARAM_construct_end(ptr dead_on_unwind writable sret(%struct.ossl_param_st) align 8 %9)
  call void @llvm.memcpy.p0.p0.i64(ptr align 8 %30, ptr align 8 %9, i64 40, i1 false), !tbaa.struct !96
  call void @llvm.lifetime.end.p0(i64 40, ptr %9) #10
  %31 = load ptr, ptr @libctx, align 8, !tbaa !17
  %32 = load ptr, ptr %5, align 8, !tbaa !4
  %33 = load ptr, ptr @propquery, align 8, !tbaa !4
  %34 = call ptr @EVP_KDF_fetch(ptr noundef %31, ptr noundef %32, ptr noundef %33)
  store ptr %34, ptr %7, align 8, !tbaa !247
  %35 = load ptr, ptr %7, align 8, !tbaa !247
  %36 = icmp eq ptr %35, null
  br i1 %36, label %37, label %39

37:                                               ; preds = %22
  %38 = load ptr, ptr %6, align 8, !tbaa !242
  call void @CRYPTO_free(ptr noundef %38, ptr noundef @.str.29, i32 noundef 3726)
  store i32 0, ptr %3, align 4
  store i32 1, ptr %8, align 4
  br label %58

39:                                               ; preds = %22
  %40 = load ptr, ptr %7, align 8, !tbaa !247
  %41 = call ptr @EVP_KDF_CTX_new(ptr noundef %40)
  %42 = load ptr, ptr %6, align 8, !tbaa !242
  %43 = getelementptr inbounds nuw %struct.kdf_data_st, ptr %42, i32 0, i32 0
  store ptr %41, ptr %43, align 8, !tbaa !249
  %44 = load ptr, ptr %7, align 8, !tbaa !247
  call void @EVP_KDF_free(ptr noundef %44)
  %45 = load ptr, ptr %6, align 8, !tbaa !242
  %46 = getelementptr inbounds nuw %struct.kdf_data_st, ptr %45, i32 0, i32 0
  %47 = load ptr, ptr %46, align 8, !tbaa !249
  %48 = icmp eq ptr %47, null
  br i1 %48, label %49, label %51

49:                                               ; preds = %39
  %50 = load ptr, ptr %6, align 8, !tbaa !242
  call void @CRYPTO_free(ptr noundef %50, ptr noundef @.str.29, i32 noundef 3732)
  store i32 0, ptr %3, align 4
  store i32 1, ptr %8, align 4
  br label %58

51:                                               ; preds = %39
  %52 = load ptr, ptr %6, align 8, !tbaa !242
  %53 = load ptr, ptr %4, align 8, !tbaa !15
  %54 = getelementptr inbounds nuw %struct.evp_test_st, ptr %53, i32 0, i32 8
  store ptr %52, ptr %54, align 8, !tbaa !66
  %55 = call ptr @OPENSSL_sk_new_null()
  %56 = load ptr, ptr %6, align 8, !tbaa !242
  %57 = getelementptr inbounds nuw %struct.kdf_data_st, ptr %56, i32 0, i32 5
  store ptr %55, ptr %57, align 8, !tbaa !250
  store i32 1, ptr %3, align 4
  store i32 1, ptr %8, align 4
  br label %58

58:                                               ; preds = %51, %49, %37, %21, %13
  call void @llvm.lifetime.end.p0(i64 8, ptr %7) #10
  call void @llvm.lifetime.end.p0(i64 8, ptr %6) #10
  %59 = load i32, ptr %3, align 4
  ret i32 %59
}