; Function Attrs: nounwind uwtable
define internal range(i32 0, 2) i32 @kdf_test_init(ptr noundef writeonly captures(none) %0, ptr noundef %1) #1 {
  %3 = alloca %struct.ossl_param_st, align 8
  %4 = tail call noalias ptr @CRYPTO_zalloc(i64 noundef 840, ptr noundef nonnull @.str.29, i32 noundef 3719) #10
  %5 = tail call i32 @test_ptr(ptr noundef nonnull @.str.29, i32 noundef 3719, ptr noundef nonnull @.str.288, ptr noundef %4) #10
  %.not = icmp eq i32 %5, 0
  br i1 %.not, label %23, label %6

6:                                                ; preds = %2
  %7 = getelementptr inbounds nuw i8, ptr %4, i64 24
  %8 = getelementptr inbounds nuw i8, ptr %4, i64 824
  store ptr %7, ptr %8, align 8, !tbaa !197
  call void @llvm.lifetime.start.p0(i64 40, ptr nonnull %3) #10
  call void @OSSL_PARAM_construct_end(ptr dead_on_unwind nonnull writable sret(%struct.ossl_param_st) align 8 %3) #10
  call void @llvm.memcpy.p0.p0.i64(ptr noundef nonnull align 8 dereferenceable(40) %7, ptr noundef nonnull align 8 dereferenceable(40) %3, i64 40, i1 false), !tbaa.struct !96
  call void @llvm.lifetime.end.p0(i64 40, ptr nonnull %3) #10
  %9 = load ptr, ptr @libctx, align 8, !tbaa !13
  %10 = load ptr, ptr @propquery, align 8, !tbaa !10
  %11 = call ptr @EVP_KDF_fetch(ptr noundef %9, ptr noundef %1, ptr noundef %10) #10
  %12 = icmp eq ptr %11, null
  br i1 %12, label %13, label %14

13:                                               ; preds = %6
  call void @CRYPTO_free(ptr noundef nonnull %4, ptr noundef nonnull @.str.29, i32 noundef 3726) #10
  br label %23

14:                                               ; preds = %6
  %15 = call ptr @EVP_KDF_CTX_new(ptr noundef nonnull %11) #10
  store ptr %15, ptr %4, align 8, !tbaa !201
  call void @EVP_KDF_free(ptr noundef nonnull %11) #10
  %16 = load ptr, ptr %4, align 8, !tbaa !201
  %17 = icmp eq ptr %16, null
  br i1 %17, label %18, label %19

18:                                               ; preds = %14
  call void @CRYPTO_free(ptr noundef nonnull %4, ptr noundef nonnull @.str.29, i32 noundef 3732) #10
  br label %23

19:                                               ; preds = %14
  %20 = getelementptr inbounds nuw i8, ptr %0, i64 35272
  store ptr %4, ptr %20, align 8, !tbaa !20
  %21 = call ptr @OPENSSL_sk_new_null() #10
  %22 = getelementptr inbounds nuw i8, ptr %4, i64 832
  store ptr %21, ptr %22, align 8, !tbaa !202
  br label %23

23:                                               ; preds = %2, %19, %18, %13
  %.0 = phi i32 [ 0, %13 ], [ 0, %18 ], [ 1, %19 ], [ 0, %2 ]
  ret i32 %.0
}